; Function Attrs: mustprogress uwtable
define noundef ptr @_ZN17RtpAnalysisDialog23getTabInfoForCurrentTabEv(ptr nocapture noundef nonnull readonly align 8 dereferenceable(328) %0) local_unnamed_addr #0 align 2 personality ptr @__gxx_personality_v0 {
  %2 = alloca %class.QVariant, align 8
  %3 = getelementptr inbounds i8, ptr %0, i64 72
  %4 = load i8, ptr %3, align 8
  %5 = and i8 %4, 1
  %.not = icmp eq i8 %5, 0
  br i1 %.not, label %6, label %_Z12qobject_castIP7QWidgetET_P7QObject.exit.thread

6:                                                ; preds = %1
  %7 = getelementptr inbounds i8, ptr %0, i64 136
  %8 = load ptr, ptr %7, align 8
  %9 = getelementptr inbounds i8, ptr %8, i64 104
  %10 = load ptr, ptr %9, align 8
  %11 = tail call noundef ptr @_ZNK10QTabWidget13currentWidgetEv(ptr noundef nonnull align 8 dereferenceable(40) %10)
  %.not.i = icmp eq ptr %11, null
  br i1 %.not.i, label %_Z12qobject_castIP7QWidgetET_P7QObject.exit.thread, label %12

12:                                               ; preds = %6
  %13 = getelementptr inbounds i8, ptr %11, i64 8
  %14 = load ptr, ptr %13, align 8
  %15 = getelementptr inbounds i8, ptr %14, i64 48
  %16 = load i32, ptr %15, align 8
  %17 = and i32 %16, 1
  %.not5.i = icmp eq i32 %17, 0
  br i1 %.not5.i, label %_Z12qobject_castIP7QWidgetET_P7QObject.exit.thread, label %_Z12qobject_castIP7QWidgetET_P7QObject.exit

_Z12qobject_castIP7QWidgetET_P7QObject.exit:      ; preds = %12
  call void @_ZNK7QObject8propertyEPKc(ptr dead_on_unwind nonnull writable sret(%class.QVariant) align 8 %2, ptr noundef nonnull align 8 dereferenceable(16) %11, ptr noundef nonnull @.str.20)
  %18 = invoke noundef ptr @_Z13qvariant_castIPvET_RK8QVariant(ptr noundef nonnull align 8 dereferenceable(32) %2)
          to label %_ZNK8QVariant5valueIPvEET_v.exit unwind label %19

_ZNK8QVariant5valueIPvEET_v.exit:                 ; preds = %_Z12qobject_castIP7QWidgetET_P7QObject.exit
  call void @_ZN8QVariantD1Ev(ptr noundef nonnull align 8 dereferenceable(32) %2) #19
  br label %_Z12qobject_castIP7QWidgetET_P7QObject.exit.thread

19:                                               ; preds = %_Z12qobject_castIP7QWidgetET_P7QObject.exit
  %20 = landingpad { ptr, i32 }
          cleanup
  call void @_ZN8QVariantD1Ev(ptr noundef nonnull align 8 dereferenceable(32) %2) #19
  resume { ptr, i32 } %20

_Z12qobject_castIP7QWidgetET_P7QObject.exit.thread: ; preds = %12, %6, %1, %_ZNK8QVariant5valueIPvEET_v.exit
  %.0 = phi ptr [ %18, %_ZNK8QVariant5valueIPvEET_v.exit ], [ null, %1 ], [ null, %6 ], [ null, %12 ]
  ret ptr %.0
}